target datalayout = "e-m:e-p270:32:32-p271:32:32-p272:64:64-i64:64-i128:128-f80:128-n8:16:32:64-S128"
target triple = "x86_64-pc-linux-gnu"

%struct.wtap_reader = type { i32, i64, i64, i32, %struct.wtap_reader_buf, %struct.wtap_reader_buf, i8, i64, i64, i32, i32, i8, i64, i8, i32, ptr, %struct.z_stream_s, i8, ptr, ptr, %struct.LZ4F_frameInfo_t, [19 x i8], ptr, ptr }
%struct.wtap_reader_buf = type { ptr, ptr, i32 }
%struct.z_stream_s = type { ptr, i32, i64, ptr, i32, i64, ptr, ptr, ptr, ptr, ptr, i32, i64, i64 }
%struct.LZ4F_frameInfo_t = type { i32, i32, i32, i32, i64, i32, i32 }
%struct.zlib_cur_seek_point = type { [32768 x i8], i32, i32 }

@.str.2 = private unnamed_addr constant [8 x i8] c"Wiretap\00", align 1
@.str.3 = private unnamed_addr constant [24 x i8] c"wiretap/file_wrappers.c\00", align 1
@.str.4 = private unnamed_addr constant [31 x i8] c"assertion \22not reached\22 failed\00", align 1
@__func__.fast_seek_reset = private unnamed_addr constant [16 x i8] c"fast_seek_reset\00", align 1

; Function Attrs: null_pointer_is_valid sspstrong uwtable
define internal void @fast_seek_reset(ptr noundef %0) #0 {
  %2 = alloca ptr, align 8
  %3 = alloca ptr, align 8
  store ptr %0, ptr %2, align 8
  %4 = load ptr, ptr %2, align 8
  %5 = getelementptr inbounds nuw %struct.wtap_reader, ptr %4, i32 0, i32 9
  %6 = load i32, ptr %5, align 8
  switch i32 %6, label %20 [
    i32 0, label %21
    i32 1, label %21
    i32 2, label %7
    i32 3, label %21
    i32 4, label %21
    i32 5, label %19
    i32 6, label %19
  ]

7:                                                ; preds = %1
  %8 = load ptr, ptr %2, align 8
  %9 = getelementptr inbounds nuw %struct.wtap_reader, ptr %8, i32 0, i32 23
  %10 = load ptr, ptr %9, align 8
  %11 = icmp ne ptr %10, null
  br i1 %11, label %12, label %18

12:                                               ; preds = %7
  call void @llvm.lifetime.start.p0(i64 8, ptr %3) #14
  %13 = load ptr, ptr %2, align 8
  %14 = getelementptr inbounds nuw %struct.wtap_reader, ptr %13, i32 0, i32 23
  %15 = load ptr, ptr %14, align 8
  store ptr %15, ptr %3, align 8
  %16 = load ptr, ptr %3, align 8
  %17 = getelementptr inbounds nuw %struct.zlib_cur_seek_point, ptr %16, i32 0, i32 2
  store i32 0, ptr %17, align 4
  call void @llvm.lifetime.end.p0(i64 8, ptr %3) #14
  br label %18

18:                                               ; preds = %12, %7
  br label %21

19:                                               ; preds = %1, %1
  br label %21

20:                                               ; preds = %1
  call void (ptr, i32, ptr, i64, ptr, ptr, ...) @ws_log_fatal_full(ptr noundef @.str.2, i32 noundef 7, ptr noundef @.str.3, i64 noundef 517, ptr noundef @__func__.fast_seek_reset, ptr noundef @.str.4) #15
  unreachable

21:                                               ; preds = %19, %1, %1, %18, %1, %1
  ret void
}