; Function Attrs: null_pointer_is_valid sspstrong uwtable
define internal fastcc void @fast_seek_reset(ptr noundef readonly captures(none) %0) unnamed_addr #0 {
  %2 = getelementptr inbounds nuw i8, ptr %0, i64 104
  %3 = load i32, ptr %2, align 8
  switch i32 %3, label %9 [
    i32 0, label %10
    i32 1, label %10
    i32 2, label %4
    i32 3, label %10
    i32 4, label %10
    i32 5, label %10
    i32 6, label %10
  ]

4:                                                ; preds = %1
  %5 = getelementptr inbounds nuw i8, ptr %0, i64 344
  %6 = load ptr, ptr %5, align 8
  %.not = icmp eq ptr %6, null
  br i1 %.not, label %10, label %7

7:                                                ; preds = %4
  %8 = getelementptr inbounds nuw i8, ptr %6, i64 32772
  store i32 0, ptr %8, align 4
  br label %10

9:                                                ; preds = %1
  tail call void (ptr, i32, ptr, i64, ptr, ptr, ...) @ws_log_fatal_full(ptr noundef nonnull @.str.2, i32 noundef 7, ptr noundef nonnull @.str.3, i64 noundef 517, ptr noundef nonnull @__func__.fast_seek_reset, ptr noundef nonnull @.str.4) #20
  unreachable

10:                                               ; preds = %1, %1, %4, %7, %1, %1, %1, %1
  ret void
}